(lp0
(dp1
S'frames'
p2
(lp3
(lp4
L11256845250500231479904003542622216875549447743L
aL2620938525185974193856641265227585087L
aL610234803938373121286864896L
aI500
aa(lp5
L378775448560121513777278313283031428920457681L
aL10453476897910041819332678575404397508169793L
aL10453474322530800305526562538314896258574736L
aI500
aa(lp6
L11417981201365312127527824292221353659327315967L
aL2658455912341669231687391710829925999L
aL618970001340061247522154896L
aI500
aasS'patterns'
p7
S'Pattern1'
p8
sa.